target datalayout = "e-m:e-p270:32:32-p271:32:32-p272:64:64-i64:64-i128:128-f80:128-n8:16:32:64-S128"
target triple = "x86_64-pc-linux-gnu"

; Function Attrs: nounwind uwtable
define internal void @gbraptopacked32(ptr noundef %0, ptr noundef %1, ptr noundef %2, i32 noundef %3, i32 noundef %4, i32 noundef %5, i32 noundef %6) #0 {
  %8 = alloca ptr, align 8
  %9 = alloca ptr, align 8
  %10 = alloca ptr, align 8
  %11 = alloca i32, align 4
  %12 = alloca i32, align 4
  %13 = alloca i32, align 4
  %14 = alloca i32, align 4
  %15 = alloca i32, align 4
  %16 = alloca i32, align 4
  %17 = alloca i32, align 4
  %18 = alloca ptr, align 8
  store ptr %0, ptr %8, align 8, !tbaa !52
  store ptr %1, ptr %9, align 8, !tbaa !54
  store ptr %2, ptr %10, align 8, !tbaa !4
  store i32 %3, ptr %11, align 4, !tbaa !9
  store i32 %4, ptr %12, align 4, !tbaa !9
  store i32 %5, ptr %13, align 4, !tbaa !9
  store i32 %6, ptr %14, align 4, !tbaa !9
  call void @llvm.lifetime.start.p0(i64 4, ptr %15) #11
  call void @llvm.lifetime.start.p0(i64 4, ptr %16) #11
  call void @llvm.lifetime.start.p0(i64 4, ptr %17) #11
  store i32 0, ptr %16, align 4, !tbaa !9
  br label %19

19:                                               ; preds = %145, %7
  %20 = load i32, ptr %16, align 4, !tbaa !9
  %21 = load i32, ptr %12, align 4, !tbaa !9
  %22 = icmp slt i32 %20, %21
  br i1 %22, label %23, label %148

23:                                               ; preds = %19
  call void @llvm.lifetime.start.p0(i64 8, ptr %18) #11
  %24 = load ptr, ptr %10, align 8, !tbaa !4
  %25 = load i32, ptr %11, align 4, !tbaa !9
  %26 = load i32, ptr %16, align 4, !tbaa !9
  %27 = mul nsw i32 %25, %26
  %28 = sext i32 %27 to i64
  %29 = getelementptr inbounds i8, ptr %24, i64 %28
  store ptr %29, ptr %18, align 8, !tbaa !4
  %30 = load i32, ptr %13, align 4, !tbaa !9
  %31 = icmp ne i32 %30, 0
  br i1 %31, label %32, label %78

32:                                               ; preds = %23
  store i32 0, ptr %15, align 4, !tbaa !9
  br label %33

33:                                               ; preds = %74, %32
  %34 = load i32, ptr %15, align 4, !tbaa !9
  %35 = load i32, ptr %14, align 4, !tbaa !9
  %36 = icmp slt i32 %34, %35
  br i1 %36, label %37, label %77

37:                                               ; preds = %33
  %38 = load ptr, ptr %8, align 8, !tbaa !52
  %39 = getelementptr inbounds ptr, ptr %38, i64 3
  %40 = load ptr, ptr %39, align 8, !tbaa !4
  %41 = load i32, ptr %15, align 4, !tbaa !9
  %42 = sext i32 %41 to i64
  %43 = getelementptr inbounds i8, ptr %40, i64 %42
  %44 = load i8, ptr %43, align 1, !tbaa !67
  %45 = load ptr, ptr %18, align 8, !tbaa !4
  %46 = getelementptr inbounds nuw i8, ptr %45, i32 1
  store ptr %46, ptr %18, align 8, !tbaa !4
  store i8 %44, ptr %45, align 1, !tbaa !67
  %47 = load ptr, ptr %8, align 8, !tbaa !52
  %48 = getelementptr inbounds ptr, ptr %47, i64 0
  %49 = load ptr, ptr %48, align 8, !tbaa !4
  %50 = load i32, ptr %15, align 4, !tbaa !9
  %51 = sext i32 %50 to i64
  %52 = getelementptr inbounds i8, ptr %49, i64 %51
  %53 = load i8, ptr %52, align 1, !tbaa !67
  %54 = load ptr, ptr %18, align 8, !tbaa !4
  %55 = getelementptr inbounds nuw i8, ptr %54, i32 1
  store ptr %55, ptr %18, align 8, !tbaa !4
  store i8 %53, ptr %54, align 1, !tbaa !67
  %56 = load ptr, ptr %8, align 8, !tbaa !52
  %57 = getelementptr inbounds ptr, ptr %56, i64 1
  %58 = load ptr, ptr %57, align 8, !tbaa !4
  %59 = load i32, ptr %15, align 4, !tbaa !9
  %60 = sext i32 %59 to i64
  %61 = getelementptr inbounds i8, ptr %58, i64 %60
  %62 = load i8, ptr %61, align 1, !tbaa !67
  %63 = load ptr, ptr %18, align 8, !tbaa !4
  %64 = getelementptr inbounds nuw i8, ptr %63, i32 1
  store ptr %64, ptr %18, align 8, !tbaa !4
  store i8 %62, ptr %63, align 1, !tbaa !67
  %65 = load ptr, ptr %8, align 8, !tbaa !52
  %66 = getelementptr inbounds ptr, ptr %65, i64 2
  %67 = load ptr, ptr %66, align 8, !tbaa !4
  %68 = load i32, ptr %15, align 4, !tbaa !9
  %69 = sext i32 %68 to i64
  %70 = getelementptr inbounds i8, ptr %67, i64 %69
  %71 = load i8, ptr %70, align 1, !tbaa !67
  %72 = load ptr, ptr %18, align 8, !tbaa !4
  %73 = getelementptr inbounds nuw i8, ptr %72, i32 1
  store ptr %73, ptr %18, align 8, !tbaa !4
  store i8 %71, ptr %72, align 1, !tbaa !67
  br label %74

74:                                               ; preds = %37
  %75 = load i32, ptr %15, align 4, !tbaa !9
  %76 = add nsw i32 %75, 1
  store i32 %76, ptr %15, align 4, !tbaa !9
  br label %33, !llvm.loop !191

77:                                               ; preds = %33
  br label %124

78:                                               ; preds = %23
  store i32 0, ptr %15, align 4, !tbaa !9
  br label %79

79:                                               ; preds = %120, %78
  %80 = load i32, ptr %15, align 4, !tbaa !9
  %81 = load i32, ptr %14, align 4, !tbaa !9
  %82 = icmp slt i32 %80, %81
  br i1 %82, label %83, label %123

83:                                               ; preds = %79
  %84 = load ptr, ptr %8, align 8, !tbaa !52
  %85 = getelementptr inbounds ptr, ptr %84, i64 0
  %86 = load ptr, ptr %85, align 8, !tbaa !4
  %87 = load i32, ptr %15, align 4, !tbaa !9
  %88 = sext i32 %87 to i64
  %89 = getelementptr inbounds i8, ptr %86, i64 %88
  %90 = load i8, ptr %89, align 1, !tbaa !67
  %91 = load ptr, ptr %18, align 8, !tbaa !4
  %92 = getelementptr inbounds nuw i8, ptr %91, i32 1
  store ptr %92, ptr %18, align 8, !tbaa !4
  store i8 %90, ptr %91, align 1, !tbaa !67
  %93 = load ptr, ptr %8, align 8, !tbaa !52
  %94 = getelementptr inbounds ptr, ptr %93, i64 1
  %95 = load ptr, ptr %94, align 8, !tbaa !4
  %96 = load i32, ptr %15, align 4, !tbaa !9
  %97 = sext i32 %96 to i64
  %98 = getelementptr inbounds i8, ptr %95, i64 %97
  %99 = load i8, ptr %98, align 1, !tbaa !67
  %100 = load ptr, ptr %18, align 8, !tbaa !4
  %101 = getelementptr inbounds nuw i8, ptr %100, i32 1
  store ptr %101, ptr %18, align 8, !tbaa !4
  store i8 %99, ptr %100, align 1, !tbaa !67
  %102 = load ptr, ptr %8, align 8, !tbaa !52
  %103 = getelementptr inbounds ptr, ptr %102, i64 2
  %104 = load ptr, ptr %103, align 8, !tbaa !4
  %105 = load i32, ptr %15, align 4, !tbaa !9
  %106 = sext i32 %105 to i64
  %107 = getelementptr inbounds i8, ptr %104, i64 %106
  %108 = load i8, ptr %107, align 1, !tbaa !67
  %109 = load ptr, ptr %18, align 8, !tbaa !4
  %110 = getelementptr inbounds nuw i8, ptr %109, i32 1
  store ptr %110, ptr %18, align 8, !tbaa !4
  store i8 %108, ptr %109, align 1, !tbaa !67
  %111 = load ptr, ptr %8, align 8, !tbaa !52
  %112 = getelementptr inbounds ptr, ptr %111, i64 3
  %113 = load ptr, ptr %112, align 8, !tbaa !4
  %114 = load i32, ptr %15, align 4, !tbaa !9
  %115 = sext i32 %114 to i64
  %116 = getelementptr inbounds i8, ptr %113, i64 %115
  %117 = load i8, ptr %116, align 1, !tbaa !67
  %118 = load ptr, ptr %18, align 8, !tbaa !4
  %119 = getelementptr inbounds nuw i8, ptr %118, i32 1
  store ptr %119, ptr %18, align 8, !tbaa !4
  store i8 %117, ptr %118, align 1, !tbaa !67
  br label %120

120:                                              ; preds = %83
  %121 = load i32, ptr %15, align 4, !tbaa !9
  %122 = add nsw i32 %121, 1
  store i32 %122, ptr %15, align 4, !tbaa !9
  br label %79, !llvm.loop !192

123:                                              ; preds = %79
  br label %124

124:                                              ; preds = %123, %77
  store i32 0, ptr %17, align 4, !tbaa !9
  br label %125

125:                                              ; preds = %141, %124
  %126 = load i32, ptr %17, align 4, !tbaa !9
  %127 = icmp slt i32 %126, 4
  br i1 %127, label %128, label %144

128:                                              ; preds = %125
  %129 = load ptr, ptr %9, align 8, !tbaa !54
  %130 = load i32, ptr %17, align 4, !tbaa !9
  %131 = sext i32 %130 to i64
  %132 = getelementptr inbounds i32, ptr %129, i64 %131
  %133 = load i32, ptr %132, align 4, !tbaa !9
  %134 = load ptr, ptr %8, align 8, !tbaa !52
  %135 = load i32, ptr %17, align 4, !tbaa !9
  %136 = sext i32 %135 to i64
  %137 = getelementptr inbounds ptr, ptr %134, i64 %136
  %138 = load ptr, ptr %137, align 8, !tbaa !4
  %139 = sext i32 %133 to i64
  %140 = getelementptr inbounds i8, ptr %138, i64 %139
  store ptr %140, ptr %137, align 8, !tbaa !4
  br label %141

141:                                              ; preds = %128
  %142 = load i32, ptr %17, align 4, !tbaa !9
  %143 = add nsw i32 %142, 1
  store i32 %143, ptr %17, align 4, !tbaa !9
  br label %125, !llvm.loop !193

144:                                              ; preds = %125
  call void @llvm.lifetime.end.p0(i64 8, ptr %18) #11
  br label %145

145:                                              ; preds = %144
  %146 = load i32, ptr %16, align 4, !tbaa !9
  %147 = add nsw i32 %146, 1
  store i32 %147, ptr %16, align 4, !tbaa !9
  br label %19, !llvm.loop !194

148:                                              ; preds = %19
  call void @llvm.lifetime.end.p0(i64 4, ptr %17) #11
  call void @llvm.lifetime.end.p0(i64 4, ptr %16) #11
  call void @llvm.lifetime.end.p0(i64 4, ptr %15) #11
  ret void
}