; Function Attrs: nofree norecurse nosync nounwind memory(read, argmem: readwrite, inaccessiblemem: none) uwtable
define internal fastcc void @gbraptopacked32(ptr noundef nonnull captures(none) %0, ptr noundef nonnull readonly captures(none) %1, ptr noundef writeonly captures(none) %2, i32 noundef %3, i32 noundef %4, i32 noundef range(i32 0, 2) %5, i32 noundef %6) unnamed_addr #9 {
  %8 = icmp sgt i32 %4, 0
  br i1 %8, label %.lr.ph55, label %._crit_edge

.lr.ph55:                                         ; preds = %7
  %.not = icmp eq i32 %5, 0
  %9 = getelementptr inbounds nuw i8, ptr %0, i64 24
  %10 = getelementptr inbounds nuw i8, ptr %0, i64 8
  %11 = getelementptr inbounds nuw i8, ptr %0, i64 16
  %12 = icmp sgt i32 %6, 0
  br i1 %.not, label %.lr.ph55.split.us, label %.lr.ph55.split

.lr.ph55.split.us:                                ; preds = %.lr.ph55
  br i1 %12, label %.preheader.us.us.preheader, label %.preheader.us

.preheader.us.us.preheader:                       ; preds = %.lr.ph55.split.us
  %13 = sext i32 %3 to i64
  %wide.trip.count93 = zext nneg i32 %4 to i64
  %wide.trip.count84 = zext nneg i32 %6 to i64
  br label %.preheader.us.us

.preheader.us.us:                                 ; preds = %.preheader.us.us.preheader, %16
  %indvars.iv90 = phi i64 [ 0, %.preheader.us.us.preheader ], [ %indvars.iv.next91, %16 ]
  %14 = mul nsw i64 %indvars.iv90, %13
  %15 = getelementptr inbounds i8, ptr %2, i64 %14
  br label %23

16:                                               ; preds = %..loopexit_crit_edge.us.us
  %indvars.iv.next91 = add nuw nsw i64 %indvars.iv90, 1
  %exitcond94.not = icmp eq i64 %indvars.iv.next91, %wide.trip.count93
  br i1 %exitcond94.not, label %._crit_edge, label %.preheader.us.us, !llvm.loop !190

..loopexit_crit_edge.us.us:                       ; preds = %23, %..loopexit_crit_edge.us.us
  %indvars.iv86 = phi i64 [ %indvars.iv.next87, %..loopexit_crit_edge.us.us ], [ 0, %23 ]
  %17 = getelementptr inbounds nuw i32, ptr %1, i64 %indvars.iv86
  %18 = load i32, ptr %17, align 4, !tbaa !48
  %19 = getelementptr inbounds nuw ptr, ptr %0, i64 %indvars.iv86
  %20 = load ptr, ptr %19, align 8, !tbaa !49
  %21 = sext i32 %18 to i64
  %22 = getelementptr inbounds i8, ptr %20, i64 %21
  store ptr %22, ptr %19, align 8, !tbaa !49
  %indvars.iv.next87 = add nuw nsw i64 %indvars.iv86, 1
  %exitcond89.not = icmp eq i64 %indvars.iv.next87, 4
  br i1 %exitcond89.not, label %16, label %..loopexit_crit_edge.us.us, !llvm.loop !191

23:                                               ; preds = %.preheader.us.us, %23
  %indvars.iv81 = phi i64 [ 0, %.preheader.us.us ], [ %indvars.iv.next82, %23 ]
  %.151.us.us = phi ptr [ %15, %.preheader.us.us ], [ %39, %23 ]
  %24 = load ptr, ptr %0, align 8, !tbaa !49
  %25 = getelementptr inbounds nuw i8, ptr %24, i64 %indvars.iv81
  %26 = load i8, ptr %25, align 1, !tbaa !61
  %27 = getelementptr inbounds nuw i8, ptr %.151.us.us, i64 1
  store i8 %26, ptr %.151.us.us, align 1, !tbaa !61
  %28 = load ptr, ptr %10, align 8, !tbaa !49
  %29 = getelementptr inbounds nuw i8, ptr %28, i64 %indvars.iv81
  %30 = load i8, ptr %29, align 1, !tbaa !61
  %31 = getelementptr inbounds nuw i8, ptr %.151.us.us, i64 2
  store i8 %30, ptr %27, align 1, !tbaa !61
  %32 = load ptr, ptr %11, align 8, !tbaa !49
  %33 = getelementptr inbounds nuw i8, ptr %32, i64 %indvars.iv81
  %34 = load i8, ptr %33, align 1, !tbaa !61
  %35 = getelementptr inbounds nuw i8, ptr %.151.us.us, i64 3
  store i8 %34, ptr %31, align 1, !tbaa !61
  %36 = load ptr, ptr %9, align 8, !tbaa !49
  %37 = getelementptr inbounds nuw i8, ptr %36, i64 %indvars.iv81
  %38 = load i8, ptr %37, align 1, !tbaa !61
  %39 = getelementptr inbounds nuw i8, ptr %.151.us.us, i64 4
  store i8 %38, ptr %35, align 1, !tbaa !61
  %indvars.iv.next82 = add nuw nsw i64 %indvars.iv81, 1
  %exitcond85.not = icmp eq i64 %indvars.iv.next82, %wide.trip.count84
  br i1 %exitcond85.not, label %..loopexit_crit_edge.us.us, label %23, !llvm.loop !192

.preheader.us:                                    ; preds = %.lr.ph55.split.us, %40
  %.04354.us = phi i32 [ %41, %40 ], [ 0, %.lr.ph55.split.us ]
  br label %42

40:                                               ; preds = %42
  %41 = add nuw nsw i32 %.04354.us, 1
  %exitcond80.not = icmp eq i32 %41, %4
  br i1 %exitcond80.not, label %._crit_edge, label %.preheader.us, !llvm.loop !190

42:                                               ; preds = %42, %.preheader.us
  %indvars.iv76 = phi i64 [ %indvars.iv.next77, %42 ], [ 0, %.preheader.us ]
  %43 = getelementptr inbounds nuw i32, ptr %1, i64 %indvars.iv76
  %44 = load i32, ptr %43, align 4, !tbaa !48
  %45 = getelementptr inbounds nuw ptr, ptr %0, i64 %indvars.iv76
  %46 = load ptr, ptr %45, align 8, !tbaa !49
  %47 = sext i32 %44 to i64
  %48 = getelementptr inbounds i8, ptr %46, i64 %47
  store ptr %48, ptr %45, align 8, !tbaa !49
  %indvars.iv.next77 = add nuw nsw i64 %indvars.iv76, 1
  %exitcond79.not = icmp eq i64 %indvars.iv.next77, 4
  br i1 %exitcond79.not, label %40, label %42, !llvm.loop !191

.lr.ph55.split:                                   ; preds = %.lr.ph55
  br i1 %12, label %.preheader46.us.preheader, label %.preheader46

.preheader46.us.preheader:                        ; preds = %.lr.ph55.split
  %49 = sext i32 %3 to i64
  %wide.trip.count74 = zext nneg i32 %4 to i64
  %wide.trip.count = zext nneg i32 %6 to i64
  br label %.preheader46.us

.preheader46.us:                                  ; preds = %.preheader46.us.preheader, %69
  %indvars.iv71 = phi i64 [ 0, %.preheader46.us.preheader ], [ %indvars.iv.next72, %69 ]
  %50 = mul nsw i64 %indvars.iv71, %49
  %51 = getelementptr inbounds i8, ptr %2, i64 %50
  br label %52

52:                                               ; preds = %.preheader46.us, %52
  %indvars.iv63 = phi i64 [ 0, %.preheader46.us ], [ %indvars.iv.next64, %52 ]
  %.049.us = phi ptr [ %51, %.preheader46.us ], [ %68, %52 ]
  %53 = load ptr, ptr %9, align 8, !tbaa !49
  %54 = getelementptr inbounds nuw i8, ptr %53, i64 %indvars.iv63
  %55 = load i8, ptr %54, align 1, !tbaa !61
  %56 = getelementptr inbounds nuw i8, ptr %.049.us, i64 1
  store i8 %55, ptr %.049.us, align 1, !tbaa !61
  %57 = load ptr, ptr %0, align 8, !tbaa !49
  %58 = getelementptr inbounds nuw i8, ptr %57, i64 %indvars.iv63
  %59 = load i8, ptr %58, align 1, !tbaa !61
  %60 = getelementptr inbounds nuw i8, ptr %.049.us, i64 2
  store i8 %59, ptr %56, align 1, !tbaa !61
  %61 = load ptr, ptr %10, align 8, !tbaa !49
  %62 = getelementptr inbounds nuw i8, ptr %61, i64 %indvars.iv63
  %63 = load i8, ptr %62, align 1, !tbaa !61
  %64 = getelementptr inbounds nuw i8, ptr %.049.us, i64 3
  store i8 %63, ptr %60, align 1, !tbaa !61
  %65 = load ptr, ptr %11, align 8, !tbaa !49
  %66 = getelementptr inbounds nuw i8, ptr %65, i64 %indvars.iv63
  %67 = load i8, ptr %66, align 1, !tbaa !61
  %68 = getelementptr inbounds nuw i8, ptr %.049.us, i64 4
  store i8 %67, ptr %64, align 1, !tbaa !61
  %indvars.iv.next64 = add nuw nsw i64 %indvars.iv63, 1
  %exitcond66.not = icmp eq i64 %indvars.iv.next64, %wide.trip.count
  br i1 %exitcond66.not, label %..loopexit47_crit_edge.us, label %52, !llvm.loop !193

69:                                               ; preds = %..loopexit47_crit_edge.us
  %indvars.iv.next72 = add nuw nsw i64 %indvars.iv71, 1
  %exitcond75.not = icmp eq i64 %indvars.iv.next72, %wide.trip.count74
  br i1 %exitcond75.not, label %._crit_edge, label %.preheader46.us, !llvm.loop !190

..loopexit47_crit_edge.us:                        ; preds = %52, %..loopexit47_crit_edge.us
  %indvars.iv67 = phi i64 [ %indvars.iv.next68, %..loopexit47_crit_edge.us ], [ 0, %52 ]
  %70 = getelementptr inbounds nuw i32, ptr %1, i64 %indvars.iv67
  %71 = load i32, ptr %70, align 4, !tbaa !48
  %72 = getelementptr inbounds nuw ptr, ptr %0, i64 %indvars.iv67
  %73 = load ptr, ptr %72, align 8, !tbaa !49
  %74 = sext i32 %71 to i64
  %75 = getelementptr inbounds i8, ptr %73, i64 %74
  store ptr %75, ptr %72, align 8, !tbaa !49
  %indvars.iv.next68 = add nuw nsw i64 %indvars.iv67, 1
  %exitcond70.not = icmp eq i64 %indvars.iv.next68, 4
  br i1 %exitcond70.not, label %69, label %..loopexit47_crit_edge.us, !llvm.loop !191

.preheader46:                                     ; preds = %.lr.ph55.split, %83
  %.04354 = phi i32 [ %84, %83 ], [ 0, %.lr.ph55.split ]
  br label %76

76:                                               ; preds = %.preheader46, %76
  %indvars.iv = phi i64 [ 0, %.preheader46 ], [ %indvars.iv.next, %76 ]
  %77 = getelementptr inbounds nuw i32, ptr %1, i64 %indvars.iv
  %78 = load i32, ptr %77, align 4, !tbaa !48
  %79 = getelementptr inbounds nuw ptr, ptr %0, i64 %indvars.iv
  %80 = load ptr, ptr %79, align 8, !tbaa !49
  %81 = sext i32 %78 to i64
  %82 = getelementptr inbounds i8, ptr %80, i64 %81
  store ptr %82, ptr %79, align 8, !tbaa !49
  %indvars.iv.next = add nuw nsw i64 %indvars.iv, 1
  %exitcond.not = icmp eq i64 %indvars.iv.next, 4
  br i1 %exitcond.not, label %83, label %76, !llvm.loop !191

83:                                               ; preds = %76
  %84 = add nuw nsw i32 %.04354, 1
  %exitcond62.not = icmp eq i32 %84, %4
  br i1 %exitcond62.not, label %._crit_edge, label %.preheader46, !llvm.loop !190

._crit_edge:                                      ; preds = %83, %69, %40, %16, %7
  ret void
}